; Function Attrs: mustprogress nofree norecurse nosync nounwind willreturn memory(read, argmem: readwrite, inaccessiblemem: none) uwtable
define hidden range(i32 0, 63488) i32 @lxb_encoding_decode_x_user_defined_single(ptr noundef readnone captures(none) %0, ptr noundef captures(none) %1, ptr noundef readnone captures(none) %2) local_unnamed_addr #7 {
  %4 = load ptr, ptr %1, align 8, !tbaa !4
  %5 = load i8, ptr %4, align 1, !tbaa !24
  %6 = getelementptr inbounds nuw i8, ptr %4, i64 1
  store ptr %6, ptr %1, align 8, !tbaa !4
  %7 = load i8, ptr %4, align 1, !tbaa !24
  %8 = zext i8 %7 to i32
  %9 = or disjoint i32 %8, 63232
  %10 = icmp slt i8 %5, 0
  %.0 = select i1 %10, i32 %9, i32 %8
  ret i32 %.0
}